; Function Attrs: null_pointer_is_valid sspstrong uwtable
define internal noalias noundef ptr @fragment_bundle_ident_persistent_key(ptr readnone captures(none) %0, i32 %1, ptr noundef readonly captures(none) %2) #2 {
  %4 = tail call noalias dereferenceable_or_null(72) ptr @g_slice_alloc(i64 noundef 72) #21
  %5 = getelementptr inbounds nuw i8, ptr %4, i64 24
  tail call void @llvm.memset.p0.i64(ptr noundef nonnull align 1 dereferenceable(72) %5, i8 noundef 0, i64 noundef 48, i1 noundef false) #19
  %6 = load i32, ptr %2, align 8
  %7 = getelementptr inbounds nuw i8, ptr %2, i64 4
  %8 = load i32, ptr %7, align 4
  %9 = getelementptr inbounds nuw i8, ptr %2, i64 8
  %10 = load ptr, ptr %9, align 8
  tail call void @llvm.memset.p0.i64(ptr noundef align 8 dereferenceable(24) %4, i8 0, i64 24, i1 false)
  store i32 %6, ptr %4, align 8
  %11 = icmp eq i32 %8, 0
  br i1 %11, label %copy_address.exit, label %12

12:                                               ; preds = %3
  %13 = sext i32 %8 to i64
  %14 = tail call ptr @wmem_memdup(ptr noundef null, ptr noundef %10, i64 noundef %13) #18
  %15 = getelementptr inbounds nuw i8, ptr %4, i64 16
  store ptr %14, ptr %15, align 8
  %16 = getelementptr inbounds nuw i8, ptr %4, i64 8
  store ptr %14, ptr %16, align 8
  %17 = getelementptr inbounds nuw i8, ptr %4, i64 4
  store i32 %8, ptr %17, align 4
  br label %copy_address.exit

copy_address.exit:                                ; preds = %3, %12
  %18 = getelementptr inbounds nuw i8, ptr %4, i64 24
  %19 = getelementptr inbounds nuw i8, ptr %2, i64 24
  tail call void @llvm.memcpy.p0.p0.i64(ptr noundef nonnull align 8 dereferenceable(32) %18, ptr noundef nonnull align 8 dereferenceable(32) %19, i64 32, i1 false)
  %20 = getelementptr inbounds nuw i8, ptr %2, i64 56
  %21 = load ptr, ptr %20, align 8
  %.not = icmp eq ptr %21, null
  br i1 %.not, label %26, label %22

22:                                               ; preds = %copy_address.exit
  %23 = tail call noalias dereferenceable_or_null(8) ptr @g_slice_alloc(i64 noundef 8) #21
  %24 = getelementptr inbounds nuw i8, ptr %4, i64 56
  %25 = load ptr, ptr %20, align 8
  store ptr %25, ptr %24, align 8
  br label %26

26:                                               ; preds = %22, %copy_address.exit
  %27 = getelementptr inbounds nuw i8, ptr %2, i64 64
  %28 = load ptr, ptr %27, align 8
  %.not18 = icmp eq ptr %28, null
  br i1 %.not18, label %33, label %29

29:                                               ; preds = %26
  %30 = tail call noalias dereferenceable_or_null(8) ptr @g_slice_alloc(i64 noundef 8) #21
  %31 = getelementptr inbounds nuw i8, ptr %4, i64 64
  %32 = load ptr, ptr %27, align 8
  store ptr %32, ptr %31, align 8
  br label %33

33:                                               ; preds = %29, %26
  ret ptr %4
}